; Function Attrs: mustprogress uwtable
define void @_ZN7rocksdb29TransactionDBMutexFactoryImpl15AllocateCondVarEv(ptr noalias nocapture writeonly sret(%"class.std::shared_ptr.0") align 8 %agg.result, ptr nocapture nonnull readnone align 8 %this) unnamed_addr #0 align 2 personality ptr @__gxx_personality_v0 {
entry:
  %call = tail call noalias noundef nonnull dereferenceable(56) ptr @_Znwm(i64 noundef 56) #10
  store ptr getelementptr inbounds ({ [8 x ptr] }, ptr @_ZTVN7rocksdb24TransactionDBCondVarImplE, i64 0, i32 0, i64 2), ptr %call, align 8
  %cv_.i = getelementptr inbounds i8, ptr %call, i64 8
  tail call void @_ZNSt18condition_variableC1Ev(ptr noundef nonnull align 8 dereferenceable(48) %cv_.i) #11
  store ptr %call, ptr %agg.result, align 8
  %_M_refcount.i.i = getelementptr inbounds i8, ptr %agg.result, i64 8
  store ptr null, ptr %_M_refcount.i.i, align 8
  %call.i.i.i.i = invoke noalias noundef nonnull dereferenceable(24) ptr @_Znwm(i64 noundef 24) #10
          to label %_ZNSt10shared_ptrIN7rocksdb20TransactionDBCondVarEEC2INS0_24TransactionDBCondVarImplEvEEPT_.exit unwind label %lpad.i.i.i.i

lpad.i.i.i.i:                                     ; preds = %entry
  %0 = landingpad { ptr, i32 }
          catch ptr null
  %1 = extractvalue { ptr, i32 } %0, 0
  %2 = tail call ptr @__cxa_begin_catch(ptr %1) #11
  %vtable.i.i.i.i = load ptr, ptr %call, align 8
  %vfn.i.i.i.i = getelementptr inbounds i8, ptr %vtable.i.i.i.i, i64 8
  %3 = load ptr, ptr %vfn.i.i.i.i, align 8
  tail call void %3(ptr noundef nonnull align 8 dereferenceable(56) %call) #11
  invoke void @__cxa_rethrow() #12
          to label %unreachable.i.i.i.i unwind label %lpad3.i.i.i.i

lpad3.i.i.i.i:                                    ; preds = %lpad.i.i.i.i
  %4 = landingpad { ptr, i32 }
          cleanup
  invoke void @__cxa_end_catch()
          to label %eh.resume.i.i.i.i unwind label %terminate.lpad.i.i.i.i

eh.resume.i.i.i.i:                                ; preds = %lpad3.i.i.i.i
  resume { ptr, i32 } %4

terminate.lpad.i.i.i.i:                           ; preds = %lpad3.i.i.i.i
  %5 = landingpad { ptr, i32 }
          catch ptr null
  %6 = extractvalue { ptr, i32 } %5, 0
  tail call void @__clang_call_terminate(ptr %6) #13
  unreachable

unreachable.i.i.i.i:                              ; preds = %lpad.i.i.i.i
  unreachable

_ZNSt10shared_ptrIN7rocksdb20TransactionDBCondVarEEC2INS0_24TransactionDBCondVarImplEvEEPT_.exit: ; preds = %entry
  %_M_use_count.i.i.i.i.i.i = getelementptr inbounds i8, ptr %call.i.i.i.i, i64 8
  store i32 1, ptr %_M_use_count.i.i.i.i.i.i, align 8
  %_M_weak_count.i.i.i.i.i.i = getelementptr inbounds i8, ptr %call.i.i.i.i, i64 12
  store i32 1, ptr %_M_weak_count.i.i.i.i.i.i, align 4
  store ptr getelementptr inbounds ({ [7 x ptr] }, ptr @_ZTVSt15_Sp_counted_ptrIPN7rocksdb24TransactionDBCondVarImplELN9__gnu_cxx12_Lock_policyE2EE, i64 0, i32 0, i64 2), ptr %call.i.i.i.i, align 8
  %_M_ptr.i.i.i.i.i = getelementptr inbounds i8, ptr %call.i.i.i.i, i64 16
  store ptr %call, ptr %_M_ptr.i.i.i.i.i, align 8
  store ptr %call.i.i.i.i, ptr %_M_refcount.i.i, align 8
  ret void
}